; ModuleID = '28/815.c'
source_filename = "28/815.c"
target datalayout = "e-m:e-p270:32:32-p271:32:32-p272:64:64-i64:64-f80:128-n8:16:32:64-S128"
target triple = "x86_64-pc-linux-gnu"

@.str = private unnamed_addr constant [4 x i8] c"%d,\00", align 1
@.str.1 = private unnamed_addr constant [3 x i8] c"%d\00", align 1

; Function Attrs: noinline nounwind uwtable
define dso_local i32 @main() #0 {
  %1 = alloca i32, align 4
  %2 = alloca [500 x [200 x i8]], align 16
  %3 = alloca i8, align 1
  %4 = alloca i32, align 4
  %5 = alloca i32, align 4
  %6 = alloca i32, align 4
  %7 = alloca [500 x i32], align 16
  store i32 0, i32* %1, align 4
  store i32 0, i32* %5, align 4
  br label %8

8:                                                ; preds = %26, %0
  %9 = load i32, i32* %5, align 4
  %10 = icmp slt i32 %9, 500
  br i1 %10, label %11, label %29

11:                                               ; preds = %8
  store i32 0, i32* %6, align 4
  br label %12

12:                                               ; preds = %22, %11
  %13 = load i32, i32* %6, align 4
  %14 = icmp slt i32 %13, 200
  br i1 %14, label %15, label %25

15:                                               ; preds = %12
  %16 = load i32, i32* %5, align 4
  %17 = sext i32 %16 to i64
  %18 = getelementptr inbounds [500 x [200 x i8]], [500 x [200 x i8]]* %2, i64 0, i64 %17
  %19 = load i32, i32* %6, align 4
  %20 = sext i32 %19 to i64
  %21 = getelementptr inbounds [200 x i8], [200 x i8]* %18, i64 0, i64 %20
  store i8 0, i8* %21, align 1
  br label %22

22:                                               ; preds = %15
  %23 = load i32, i32* %6, align 4
  %24 = add nsw i32 %23, 1
  store i32 %24, i32* %6, align 4
  br label %12

25:                                               ; preds = %12
  br label %26

26:                                               ; preds = %25
  %27 = load i32, i32* %5, align 4
  %28 = add nsw i32 %27, 1
  store i32 %28, i32* %5, align 4
  br label %8

29:                                               ; preds = %8
  store i32 0, i32* %5, align 4
  store i32 0, i32* %6, align 4
  br label %30

30:                                               ; preds = %29, %64
  %31 = call i32 @getchar()
  %32 = trunc i32 %31 to i8
  store i8 %32, i8* %3, align 1
  %33 = load i8, i8* %3, align 1
  %34 = sext i8 %33 to i32
  %35 = icmp ne i32 %34, 32
  br i1 %35, label %36, label %50

36:                                               ; preds = %30
  %37 = load i8, i8* %3, align 1
  %38 = sext i8 %37 to i32
  %39 = icmp ne i32 %38, 10
  br i1 %39, label %40, label %50

40:                                               ; preds = %36
  %41 = load i8, i8* %3, align 1
  %42 = load i32, i32* %5, align 4
  %43 = sext i32 %42 to i64
  %44 = getelementptr inbounds [500 x [200 x i8]], [500 x [200 x i8]]* %2, i64 0, i64 %43
  %45 = load i32, i32* %6, align 4
  %46 = sext i32 %45 to i64
  %47 = getelementptr inbounds [200 x i8], [200 x i8]* %44, i64 0, i64 %46
  store i8 %41, i8* %47, align 1
  %48 = load i32, i32* %6, align 4
  %49 = add nsw i32 %48, 1
  store i32 %49, i32* %6, align 4
  br label %58

50:                                               ; preds = %36, %30
  %51 = load i8, i8* %3, align 1
  %52 = sext i8 %51 to i32
  %53 = icmp eq i32 %52, 32
  br i1 %53, label %54, label %57

54:                                               ; preds = %50
  %55 = load i32, i32* %5, align 4
  %56 = add nsw i32 %55, 1
  store i32 %56, i32* %5, align 4
  store i32 0, i32* %6, align 4
  br label %57

57:                                               ; preds = %54, %50
  br label %58

58:                                               ; preds = %57, %40
  %59 = load i8, i8* %3, align 1
  %60 = sext i8 %59 to i32
  %61 = icmp eq i32 %60, 10
  br i1 %61, label %62, label %64

62:                                               ; preds = %58
  %63 = load i32, i32* %5, align 4
  store i32 %63, i32* %4, align 4
  br label %65

64:                                               ; preds = %58
  br label %30

65:                                               ; preds = %62
  store i32 0, i32* %5, align 4
  br label %66

66:                                               ; preds = %92, %65
  %67 = load i32, i32* %5, align 4
  %68 = load i32, i32* %4, align 4
  %69 = icmp slt i32 %67, %68
  br i1 %69, label %70, label %95

70:                                               ; preds = %66
  %71 = load i32, i32* %5, align 4
  %72 = sext i32 %71 to i64
  %73 = getelementptr inbounds [500 x [200 x i8]], [500 x [200 x i8]]* %2, i64 0, i64 %72
  %74 = getelementptr inbounds [200 x i8], [200 x i8]* %73, i64 0, i64 0
  %75 = call i64 @strlen(i8* %74) #3
  %76 = trunc i64 %75 to i32
  %77 = load i32, i32* %5, align 4
  %78 = sext i32 %77 to i64
  %79 = getelementptr inbounds [500 x i32], [500 x i32]* %7, i64 0, i64 %78
  store i32 %76, i32* %79, align 4
  %80 = load i32, i32* %5, align 4
  %81 = sext i32 %80 to i64
  %82 = getelementptr inbounds [500 x i32], [500 x i32]* %7, i64 0, i64 %81
  %83 = load i32, i32* %82, align 4
  %84 = icmp ne i32 %83, 0
  br i1 %84, label %85, label %91

85:                                               ; preds = %70
  %86 = load i32, i32* %5, align 4
  %87 = sext i32 %86 to i64
  %88 = getelementptr inbounds [500 x i32], [500 x i32]* %7, i64 0, i64 %87
  %89 = load i32, i32* %88, align 4
  %90 = call i32 (i8*, ...) @printf(i8* getelementptr inbounds ([4 x i8], [4 x i8]* @.str, i64 0, i64 0), i32 %89)
  br label %91

91:                                               ; preds = %85, %70
  br label %92

92:                                               ; preds = %91
  %93 = load i32, i32* %5, align 4
  %94 = add nsw i32 %93, 1
  store i32 %94, i32* %5, align 4
  br label %66

95:                                               ; preds = %66
  %96 = load i32, i32* %4, align 4
  %97 = sext i32 %96 to i64
  %98 = getelementptr inbounds [500 x [200 x i8]], [500 x [200 x i8]]* %2, i64 0, i64 %97
  %99 = getelementptr inbounds [200 x i8], [200 x i8]* %98, i64 0, i64 0
  %100 = call i64 @strlen(i8* %99) #3
  %101 = trunc i64 %100 to i32
  %102 = load i32, i32* %4, align 4
  %103 = sext i32 %102 to i64
  %104 = getelementptr inbounds [500 x i32], [500 x i32]* %7, i64 0, i64 %103
  store i32 %101, i32* %104, align 4
  %105 = load i32, i32* %4, align 4
  %106 = sext i32 %105 to i64
  %107 = getelementptr inbounds [500 x i32], [500 x i32]* %7, i64 0, i64 %106
  %108 = load i32, i32* %107, align 4
  %109 = call i32 (i8*, ...) @printf(i8* getelementptr inbounds ([3 x i8], [3 x i8]* @.str.1, i64 0, i64 0), i32 %108)
  ret i32 0
}

declare dso_local i32 @getchar() #1

; Function Attrs: nounwind readonly
declare dso_local i64 @strlen(i8*) #2

declare dso_local i32 @printf(i8*, ...) #1


!llvm.module.flags = !{!0}
!llvm.ident = !{!1}

!0 = !{i32 1, !"wchar_size", i32 4}
!1 = !{!"clang version 10.0.0-4ubuntu1 "}
