; ModuleID = 'source-C-CXX/27/815.c'
source_filename = "source-C-CXX/27/815.c"
target datalayout = "e-m:e-p270:32:32-p271:32:32-p272:64:64-i64:64-f80:128-n8:16:32:64-S128"
target triple = "x86_64-pc-linux-gnu"

%struct._IO_FILE = type { i32, i8*, i8*, i8*, i8*, i8*, i8*, i8*, i8*, i8*, i8*, i8*, %struct._IO_marker*, %struct._IO_FILE*, i32, i32, i64, i16, i8, [1 x i8], i8*, i64, %struct._IO_codecvt*, %struct._IO_wide_data*, %struct._IO_FILE*, i8*, i64, i32, [20 x i8] }
%struct._IO_marker = type opaque
%struct._IO_codecvt = type opaque
%struct._IO_wide_data = type opaque

@.str = private unnamed_addr constant [4 x i8] c"%d,\00", align 1
@.str.1 = private unnamed_addr constant [3 x i8] c"%d\00", align 1
@stdin = external local_unnamed_addr global %struct._IO_FILE*, align 8

; Function Attrs: nofree nounwind sspstrong uwtable
define dso_local i32 @main() local_unnamed_addr #0 {
  %1 = alloca [500 x [200 x i8]], align 16
  %2 = getelementptr inbounds [500 x [200 x i8]], [500 x [200 x i8]]* %1, i64 0, i64 0, i64 0
  %3 = getelementptr inbounds [500 x [200 x i8]], [500 x [200 x i8]]* %1, i64 0, i64 0, i64 0
  call void @llvm.lifetime.start.p0i8(i64 100000, i8* nonnull %3) #5
  call void @llvm.memset.p0i8.i64(i8* noundef nonnull align 16 dereferenceable(100000) %2, i8 0, i64 100000, i1 false)
  br label %4

4:                                                ; preds = %17, %0
  %5 = phi i32 [ %18, %17 ], [ 0, %0 ]
  %6 = zext i32 %5 to i64
  br label %7

7:                                                ; preds = %4, %12
  %8 = phi i32 [ %16, %12 ], [ 0, %4 ]
  %9 = load %struct._IO_FILE*, %struct._IO_FILE** @stdin, align 8, !tbaa !5
  %10 = tail call i32 @getc(%struct._IO_FILE* %9) #5
  %11 = shl i32 %10, 24
  switch i32 %11, label %12 [
    i32 536870912, label %17
    i32 167772160, label %19
  ]

12:                                               ; preds = %7
  %13 = trunc i32 %10 to i8
  %14 = zext i32 %8 to i64
  %15 = getelementptr inbounds [500 x [200 x i8]], [500 x [200 x i8]]* %1, i64 0, i64 %6, i64 %14
  store i8 %13, i8* %15, align 1, !tbaa !9
  %16 = add nuw nsw i32 %8, 1
  br label %7

17:                                               ; preds = %7
  %18 = add nuw nsw i32 %5, 1
  br label %4

19:                                               ; preds = %7
  %20 = icmp eq i32 %5, 0
  br i1 %20, label %34, label %21

21:                                               ; preds = %19
  %22 = zext i32 %5 to i64
  br label %23

23:                                               ; preds = %21, %31
  %24 = phi i64 [ 0, %21 ], [ %32, %31 ]
  %25 = getelementptr inbounds [500 x [200 x i8]], [500 x [200 x i8]]* %1, i64 0, i64 %24, i64 0
  %26 = call i64 @strlen(i8* noundef nonnull %25) #6
  %27 = trunc i64 %26 to i32
  %28 = icmp eq i32 %27, 0
  br i1 %28, label %31, label %29

29:                                               ; preds = %23
  %30 = tail call i32 (i8*, ...) @printf(i8* nonnull dereferenceable(1) getelementptr inbounds ([4 x i8], [4 x i8]* @.str, i64 0, i64 0), i32 %27)
  br label %31

31:                                               ; preds = %23, %29
  %32 = add nuw nsw i64 %24, 1
  %33 = icmp eq i64 %32, %22
  br i1 %33, label %34, label %23, !llvm.loop !10

34:                                               ; preds = %31, %19
  %35 = zext i32 %5 to i64
  %36 = getelementptr inbounds [500 x [200 x i8]], [500 x [200 x i8]]* %1, i64 0, i64 %35, i64 0
  %37 = call i64 @strlen(i8* noundef nonnull %36) #6
  %38 = trunc i64 %37 to i32
  %39 = tail call i32 (i8*, ...) @printf(i8* nonnull dereferenceable(1) getelementptr inbounds ([3 x i8], [3 x i8]* @.str.1, i64 0, i64 0), i32 %38)
  call void @llvm.lifetime.end.p0i8(i64 100000, i8* nonnull %3) #5
  ret i32 0
}

; Function Attrs: argmemonly mustprogress nofree nosync nounwind willreturn
declare void @llvm.lifetime.start.p0i8(i64 immarg, i8* nocapture) #1

; Function Attrs: argmemonly mustprogress nofree nounwind readonly willreturn
declare i64 @strlen(i8* nocapture) local_unnamed_addr #2

; Function Attrs: nofree nounwind
declare noundef i32 @printf(i8* nocapture noundef readonly, ...) local_unnamed_addr #3

; Function Attrs: argmemonly mustprogress nofree nosync nounwind willreturn
declare void @llvm.lifetime.end.p0i8(i64 immarg, i8* nocapture) #1

; Function Attrs: nofree nounwind
declare noundef i32 @getc(%struct._IO_FILE* nocapture noundef) local_unnamed_addr #3

; Function Attrs: argmemonly nofree nounwind willreturn writeonly
declare void @llvm.memset.p0i8.i64(i8* nocapture writeonly, i8, i64, i1 immarg) #4


!llvm.module.flags = !{!0, !1, !2, !3}
!llvm.ident = !{!4}

!0 = !{i32 1, !"wchar_size", i32 4}
!1 = !{i32 7, !"PIC Level", i32 2}
!2 = !{i32 7, !"PIE Level", i32 2}
!3 = !{i32 7, !"uwtable", i32 1}
!4 = !{!"clang version 13.0.0"}
!5 = !{!6, !6, i64 0}
!6 = !{!"any pointer", !7, i64 0}
!7 = !{!"omnipotent char", !8, i64 0}
!8 = !{!"Simple C/C++ TBAA"}
!9 = !{!7, !7, i64 0}
!10 = distinct !{!10, !11}
!11 = !{!"llvm.loop.mustprogress"}
